; Function Attrs: nounwind uwtable
define dso_local void @SDLTest_TextWindowDestroy(ptr noundef %0) local_unnamed_addr #0 {
  %.not = icmp eq ptr %0, null
  br i1 %.not, label %22, label %2

2:                                                ; preds = %1
  %3 = getelementptr inbounds nuw i8, ptr %0, i64 20
  %4 = load i32, ptr %3, align 4
  %5 = icmp sgt i32 %4, 0
  br i1 %5, label %.lr.ph.i, label %SDLTest_TextWindowClear.exit

.lr.ph.i:                                         ; preds = %2
  %6 = getelementptr inbounds nuw i8, ptr %0, i64 24
  br label %7

7:                                                ; preds = %15, %.lr.ph.i
  %8 = phi i32 [ %4, %.lr.ph.i ], [ %16, %15 ]
  %indvars.iv.i = phi i64 [ 0, %.lr.ph.i ], [ %indvars.iv.next.i, %15 ]
  %9 = load ptr, ptr %6, align 8
  %10 = getelementptr inbounds nuw ptr, ptr %9, i64 %indvars.iv.i
  %11 = load ptr, ptr %10, align 8
  %.not.i = icmp eq ptr %11, null
  br i1 %.not.i, label %15, label %12

12:                                               ; preds = %7
  tail call void @SDL_free(ptr noundef nonnull %11) #8
  %13 = load ptr, ptr %6, align 8
  %14 = getelementptr inbounds nuw ptr, ptr %13, i64 %indvars.iv.i
  store ptr null, ptr %14, align 8
  %.pre.i = load i32, ptr %3, align 4
  br label %15

15:                                               ; preds = %12, %7
  %16 = phi i32 [ %8, %7 ], [ %.pre.i, %12 ]
  %indvars.iv.next.i = add nuw nsw i64 %indvars.iv.i, 1
  %17 = sext i32 %16 to i64
  %18 = icmp slt i64 %indvars.iv.next.i, %17
  br i1 %18, label %7, label %SDLTest_TextWindowClear.exit, !llvm.loop !7

SDLTest_TextWindowClear.exit:                     ; preds = %15, %2
  %19 = getelementptr inbounds nuw i8, ptr %0, i64 16
  store i32 0, ptr %19, align 8
  %20 = getelementptr inbounds nuw i8, ptr %0, i64 24
  %21 = load ptr, ptr %20, align 8
  tail call void @SDL_free(ptr noundef %21) #8
  tail call void @SDL_free(ptr noundef nonnull %0) #8
  br label %22

22:                                               ; preds = %SDLTest_TextWindowClear.exit, %1
  ret void
}